target datalayout = "e-m:e-p270:32:32-p271:32:32-p272:64:64-i64:64-i128:128-f80:128-n8:16:32:64-S128"
target triple = "x86_64-pc-linux-gnu"

%struct._zend_array = type { %struct._zend_refcounted_h, %union.anon.0, i32, %union.anon.1, i32, i32, i32, i32, i64, ptr }
%struct._zend_refcounted_h = type { i32, %union.anon }
%union.anon = type { i32 }
%union.anon.0 = type { i32 }
%union.anon.1 = type { ptr }
%struct._php_stream = type { ptr, ptr, %struct._php_stream_filter_chain, %struct._php_stream_filter_chain, ptr, ptr, %struct._zval_struct, i16, [16 x i8], i32, ptr, ptr, ptr, ptr, i64, ptr, i64, i64, i64, i64, ptr }
%struct._php_stream_filter_chain = type { ptr, ptr, ptr }
%struct._zval_struct = type { %union._zend_value, %union.anon.3, %union.anon.6 }
%union._zend_value = type { i64 }
%union.anon.3 = type { i32 }
%union.anon.6 = type { i32 }
%struct._zend_string = type { %struct._zend_refcounted_h, i64, i64, [1 x i8] }
%struct._php_stream_dirent = type { [256 x i8], i8 }

; Function Attrs: nounwind uwtable
define internal i64 @phar_dir_read(ptr noundef %0, ptr noundef %1, i64 noundef %2) #0 {
  %4 = alloca ptr, align 8
  %5 = alloca ptr, align 8
  %6 = alloca ptr, align 8
  %7 = alloca ptr, align 8
  %8 = alloca i64, align 8
  %9 = alloca ptr, align 8
  %10 = alloca ptr, align 8
  %11 = alloca i64, align 8
  %12 = alloca ptr, align 8
  %13 = alloca ptr, align 8
  %14 = alloca i64, align 8
  %15 = alloca ptr, align 8
  %16 = alloca i64, align 8
  store ptr %0, ptr %9, align 8
  store ptr %1, ptr %10, align 8
  store i64 %2, ptr %11, align 8
  %17 = load ptr, ptr %9, align 8
  %18 = getelementptr inbounds %struct._php_stream, ptr %17, i32 0, i32 1
  %19 = load ptr, ptr %18, align 8
  store ptr %19, ptr %12, align 8
  %20 = load i64, ptr %11, align 8
  %21 = icmp ne i64 %20, 257
  br i1 %21, label %22, label %23

22:                                               ; preds = %3
  store i64 -1, ptr %8, align 8
  br label %68

23:                                               ; preds = %3
  %24 = load ptr, ptr %12, align 8
  store ptr %24, ptr %5, align 8
  store ptr %13, ptr %6, align 8
  store ptr %14, ptr %7, align 8
  %25 = load ptr, ptr %5, align 8
  %26 = load ptr, ptr %6, align 8
  %27 = load ptr, ptr %7, align 8
  %28 = load ptr, ptr %5, align 8
  %29 = getelementptr inbounds %struct._zend_array, ptr %28, i32 0, i32 7
  %30 = call i32 @zend_hash_get_current_key_ex(ptr noundef %25, ptr noundef %26, ptr noundef %27, ptr noundef %29) #8
  %31 = icmp eq i32 3, %30
  br i1 %31, label %32, label %33

32:                                               ; preds = %23
  store i64 0, ptr %8, align 8
  br label %68

33:                                               ; preds = %23
  %34 = load ptr, ptr %12, align 8
  store ptr %34, ptr %4, align 8
  %35 = load ptr, ptr %4, align 8
  %36 = load ptr, ptr %4, align 8
  %37 = getelementptr inbounds %struct._zend_array, ptr %36, i32 0, i32 7
  %38 = call i32 @zend_hash_move_forward_ex(ptr noundef %35, ptr noundef %37) #8
  %39 = load ptr, ptr %10, align 8
  store ptr %39, ptr %15, align 8
  %40 = load ptr, ptr %13, align 8
  %41 = getelementptr inbounds %struct._zend_string, ptr %40, i32 0, i32 2
  %42 = load i64, ptr %41, align 8
  %43 = icmp ule i64 256, %42
  br i1 %43, label %44, label %45

44:                                               ; preds = %33
  store i64 0, ptr %8, align 8
  br label %68

45:                                               ; preds = %33
  %46 = load ptr, ptr %15, align 8
  call void @llvm.memset.p0.i64(ptr align 1 %46, i8 0, i64 257, i1 false)
  %47 = load ptr, ptr %13, align 8
  %48 = getelementptr inbounds %struct._zend_string, ptr %47, i32 0, i32 2
  %49 = load i64, ptr %48, align 8
  %50 = icmp uge i64 %49, 256
  br i1 %50, label %51, label %52

51:                                               ; preds = %45
  store i64 255, ptr %16, align 8
  br label %56

52:                                               ; preds = %45
  %53 = load ptr, ptr %13, align 8
  %54 = getelementptr inbounds %struct._zend_string, ptr %53, i32 0, i32 2
  %55 = load i64, ptr %54, align 8
  store i64 %55, ptr %16, align 8
  br label %56

56:                                               ; preds = %52, %51
  %57 = load ptr, ptr %15, align 8
  %58 = getelementptr inbounds %struct._php_stream_dirent, ptr %57, i32 0, i32 0
  %59 = getelementptr inbounds [256 x i8], ptr %58, i64 0, i64 0
  %60 = load ptr, ptr %13, align 8
  %61 = getelementptr inbounds %struct._zend_string, ptr %60, i32 0, i32 3
  %62 = getelementptr inbounds [1 x i8], ptr %61, i64 0, i64 0
  %63 = load i64, ptr %16, align 8
  call void @llvm.memcpy.p0.p0.i64(ptr align 1 %59, ptr align 8 %62, i64 %63, i1 false)
  %64 = load ptr, ptr %15, align 8
  %65 = getelementptr inbounds %struct._php_stream_dirent, ptr %64, i32 0, i32 0
  %66 = load i64, ptr %16, align 8
  %67 = getelementptr inbounds [256 x i8], ptr %65, i64 0, i64 %66
  store i8 0, ptr %67, align 1
  store i64 257, ptr %8, align 8
  br label %68

68:                                               ; preds = %56, %44, %32, %22
  %69 = load i64, ptr %8, align 8
  ret i64 %69
}