; Function Attrs: nounwind uwtable
define internal noundef i64 @phar_dir_read(ptr nocapture noundef readonly %0, ptr nocapture noundef writeonly %1, i64 noundef %2) #1 {
  %4 = alloca ptr, align 8
  %5 = alloca i64, align 8
  %6 = getelementptr inbounds i8, ptr %0, i64 8
  %7 = load ptr, ptr %6, align 8
  %.not = icmp eq i64 %2, 257
  br i1 %.not, label %8, label %22

8:                                                ; preds = %3
  %9 = getelementptr inbounds i8, ptr %7, i64 36
  %10 = call i32 @zend_hash_get_current_key_ex(ptr noundef %7, ptr noundef nonnull %4, ptr noundef nonnull %5, ptr noundef nonnull %9) #10
  %11 = icmp eq i32 %10, 3
  br i1 %11, label %22, label %12

12:                                               ; preds = %8
  %13 = call i32 @zend_hash_move_forward_ex(ptr noundef %7, ptr noundef nonnull %9) #10
  %14 = load ptr, ptr %4, align 8
  %15 = getelementptr inbounds i8, ptr %14, i64 16
  %16 = load i64, ptr %15, align 8
  %17 = icmp ugt i64 %16, 255
  br i1 %17, label %22, label %18

18:                                               ; preds = %12
  call void @llvm.memset.p0.i64(ptr noundef nonnull align 1 dereferenceable(257) %1, i8 0, i64 257, i1 false)
  %19 = load i64, ptr %15, align 8
  %. = call i64 @llvm.umin.i64(i64 %19, i64 255)
  %20 = getelementptr inbounds i8, ptr %14, i64 24
  call void @llvm.memcpy.p0.p0.i64(ptr align 1 %1, ptr nonnull align 8 %20, i64 %., i1 false)
  %21 = getelementptr inbounds [256 x i8], ptr %1, i64 0, i64 %.
  store i8 0, ptr %21, align 1
  br label %22

22:                                               ; preds = %12, %8, %3, %18
  %.016 = phi i64 [ 257, %18 ], [ -1, %3 ], [ 0, %8 ], [ 0, %12 ]
  ret i64 %.016
}